target datalayout = "e-m:e-p270:32:32-p271:32:32-p272:64:64-i64:64-i128:128-f80:128-n8:16:32:64-S128"
target triple = "x86_64-pc-linux-gnu"

; Function Attrs: mustprogress nounwind uwtable
define hidden noundef ptr @_ZNK6IfNode18uncommon_trap_projERP18CallStaticJavaNode(ptr noundef nonnull align 8 dereferenceable(60) %0, ptr noundef nonnull align 8 dereferenceable(8) %1) #1 align 2 {
  %3 = alloca ptr, align 8
  %4 = alloca ptr, align 8
  %5 = alloca ptr, align 8
  %6 = alloca i32, align 4
  store ptr %0, ptr %4, align 8
  store ptr %1, ptr %5, align 8
  %7 = load ptr, ptr %4, align 8
  store i32 0, ptr %6, align 4
  br label %8

8:                                                ; preds = %23, %2
  %9 = load i32, ptr %6, align 4
  %10 = icmp slt i32 %9, 2
  br i1 %10, label %11, label %26

11:                                               ; preds = %8
  %12 = load i32, ptr %6, align 4
  %13 = call noundef ptr @_ZNK9MultiNode8proj_outEj(ptr noundef nonnull align 8 dereferenceable(52) %7, i32 noundef %12)
  %14 = call noundef ptr @_ZNK8ProjNode21is_uncommon_trap_projEN14Deoptimization11DeoptReasonE(ptr noundef nonnull align 8 dereferenceable(57) %13, i32 noundef 0)
  %15 = load ptr, ptr %5, align 8
  store ptr %14, ptr %15, align 8
  %16 = load ptr, ptr %5, align 8
  %17 = load ptr, ptr %16, align 8
  %18 = icmp ne ptr %17, null
  br i1 %18, label %19, label %22

19:                                               ; preds = %11
  %20 = load i32, ptr %6, align 4
  %21 = call noundef ptr @_ZNK9MultiNode8proj_outEj(ptr noundef nonnull align 8 dereferenceable(52) %7, i32 noundef %20)
  store ptr %21, ptr %3, align 8
  br label %27

22:                                               ; preds = %11
  br label %23

23:                                               ; preds = %22
  %24 = load i32, ptr %6, align 4
  %25 = add nsw i32 %24, 1
  store i32 %25, ptr %6, align 4
  br label %8, !llvm.loop !8

26:                                               ; preds = %8
  store ptr null, ptr %3, align 8
  br label %27

27:                                               ; preds = %26, %19
  %28 = load ptr, ptr %3, align 8
  ret ptr %28
}