; Function Attrs: mustprogress nounwind uwtable
define hidden noundef ptr @_ZNK6IfNode18uncommon_trap_projERP18CallStaticJavaNode(ptr noundef nonnull align 8 dereferenceable(60) %0, ptr nocapture noundef nonnull writeonly align 8 dereferenceable(8) %1) local_unnamed_addr #0 align 2 {
  br label %3

3:                                                ; preds = %2, %9
  %4 = phi i1 [ true, %2 ], [ false, %9 ]
  %.09 = phi i32 [ 0, %2 ], [ 1, %9 ]
  %5 = tail call noundef ptr @_ZNK9MultiNode8proj_outEj(ptr noundef nonnull align 8 dereferenceable(52) %0, i32 noundef %.09) #8
  %6 = tail call noundef ptr @_ZNK8ProjNode21is_uncommon_trap_projEN14Deoptimization11DeoptReasonE(ptr noundef nonnull align 8 dereferenceable(57) %5, i32 noundef 0) #8
  store ptr %6, ptr %1, align 8
  %.not = icmp eq ptr %6, null
  br i1 %.not, label %9, label %7

7:                                                ; preds = %3
  %8 = tail call noundef ptr @_ZNK9MultiNode8proj_outEj(ptr noundef nonnull align 8 dereferenceable(52) %0, i32 noundef %.09) #8
  br label %.loopexit

9:                                                ; preds = %3
  br i1 %4, label %3, label %.loopexit, !llvm.loop !8

.loopexit:                                        ; preds = %9, %7
  %.07 = phi ptr [ %8, %7 ], [ null, %9 ]
  ret ptr %.07
}